; Function Attrs: nofree norecurse nosync nounwind memory(argmem: readwrite) uwtable
define hidden void @je_sc_data_update_slab_size(ptr noundef captures(none) %0, i64 noundef %1, i64 noundef %2, i32 noundef %3) local_unnamed_addr #2 {
  %5 = getelementptr inbounds nuw i8, ptr %0, i64 12
  %6 = load i32, ptr %5, align 4, !tbaa !27
  %7 = icmp sgt i32 %6, 0
  br i1 %7, label %.lr.ph, label %.critedge

.lr.ph:                                           ; preds = %4
  %8 = getelementptr inbounds nuw i8, ptr %0, i64 76
  %9 = sext i32 %3 to i64
  %wide.trip.count = zext nneg i32 %6 to i64
  br label %10

10:                                               ; preds = %.lr.ph, %sc_data_update_sc_slab_size.exit
  %indvars.iv = phi i64 [ 0, %.lr.ph ], [ %indvars.iv.next, %sc_data_update_sc_slab_size.exit ]
  %11 = getelementptr inbounds nuw [232 x %struct.sc_s], ptr %8, i64 0, i64 %indvars.iv
  %12 = getelementptr inbounds nuw i8, ptr %11, i64 17
  %13 = load i8, ptr %12, align 1, !tbaa !14, !range !37, !noundef !38
  %14 = trunc nuw i8 %13 to i1
  br i1 %14, label %15, label %.critedge

15:                                               ; preds = %10
  %16 = getelementptr inbounds nuw i8, ptr %11, i64 4
  %17 = load i32, ptr %16, align 4, !tbaa !10
  %18 = getelementptr inbounds nuw i8, ptr %11, i64 8
  %19 = load i32, ptr %18, align 4, !tbaa !11
  %20 = getelementptr inbounds nuw i8, ptr %11, i64 12
  %21 = load i32, ptr %20, align 4, !tbaa !12
  %22 = zext nneg i32 %17 to i64
  %23 = shl nuw i64 1, %22
  %24 = sext i32 %21 to i64
  %25 = zext nneg i32 %19 to i64
  %26 = shl i64 %24, %25
  %27 = add i64 %26, %23
  %.not = icmp ugt i64 %1, %27
  %.not18 = icmp ugt i64 %27, %2
  %or.cond = or i1 %.not, %.not18
  br i1 %or.cond, label %sc_data_update_sc_slab_size.exit, label %28

28:                                               ; preds = %15
  %29 = lshr i64 %27, 12
  %30 = and i64 %27, 4095
  %.not.i = icmp ne i64 %30, 0
  %31 = zext i1 %.not.i to i64
  %spec.select.i = add nuw nsw i64 %29, %31
  %32 = lshr i64 %27, 3
  %33 = icmp ugt i64 %spec.select.i, %9
  br i1 %33, label %34, label %37

34:                                               ; preds = %28
  %35 = trunc i64 %spec.select.i to i32
  %36 = getelementptr inbounds nuw i8, ptr %11, i64 20
  store i32 %35, ptr %36, align 4, !tbaa !15
  br label %sc_data_update_sc_slab_size.exit

37:                                               ; preds = %28
  %38 = and i64 %32, 4503599627370495
  %39 = icmp ult i64 %38, %9
  %40 = getelementptr inbounds nuw i8, ptr %11, i64 20
  br i1 %39, label %41, label %43

41:                                               ; preds = %37
  %42 = trunc i64 %32 to i32
  store i32 %42, ptr %40, align 4, !tbaa !15
  br label %sc_data_update_sc_slab_size.exit

43:                                               ; preds = %37
  store i32 %3, ptr %40, align 4, !tbaa !15
  br label %sc_data_update_sc_slab_size.exit

sc_data_update_sc_slab_size.exit:                 ; preds = %15, %34, %41, %43
  %indvars.iv.next = add nuw nsw i64 %indvars.iv, 1
  %exitcond.not = icmp eq i64 %indvars.iv.next, %wide.trip.count
  br i1 %exitcond.not, label %.critedge, label %10, !llvm.loop !39

.critedge:                                        ; preds = %sc_data_update_sc_slab_size.exit, %10, %4
  ret void
}